target datalayout = "e-m:e-p270:32:32-p271:32:32-p272:64:64-i64:64-i128:128-f80:128-n8:16:32:64-S128"
target triple = "x86_64-pc-linux-gnu"

%struct._zval_struct = type { %union._zend_value, %union.anon, %union.anon.2 }
%union._zend_value = type { i64 }
%union.anon = type { i32 }
%union.anon.2 = type { i32 }
%struct._zend_array = type { %struct._zend_refcounted_h, %union.anon.7, i32, %union.anon.9, i32, i32, i32, i32, i64, ptr }
%struct._zend_refcounted_h = type { i32, %union.anon.6 }
%union.anon.6 = type { i32 }
%union.anon.7 = type { i32 }
%union.anon.9 = type { ptr }
%struct._zend_object = type { %struct._zend_refcounted_h, i32, i32, ptr, ptr, ptr, [1 x %struct._zval_struct] }
%struct._pdo_dbh_t = type { ptr, ptr, ptr, ptr, i32, ptr, i64, [6 x i8], i32, i32, i32, ptr, i64, i32, [2 x ptr], ptr, ptr, %struct._zval_struct, ptr, ptr, i32 }
%struct._pdo_dbh_object_t = type { ptr, %struct._zend_object }
%struct._zend_class_entry = type { i8, ptr, %union.anon.11, i32, i32, i32, i32, ptr, ptr, ptr, %struct._zend_array, %struct._zend_array, %struct._zend_array, ptr, ptr, ptr, ptr, ptr, ptr, ptr, ptr, ptr, ptr, ptr, ptr, ptr, ptr, ptr, ptr, ptr, ptr, ptr, %union.anon.12, ptr, ptr, ptr, ptr, i32, i32, i32, i32, %union.anon.13, ptr, ptr, ptr, ptr, i32, ptr, ptr, %union.anon.14 }
%union.anon.11 = type { ptr }
%union.anon.12 = type { ptr }
%union.anon.13 = type { ptr }
%union.anon.14 = type { %struct.anon.15 }
%struct.anon.15 = type { ptr, i32, i32 }

@pdo_dbstmt_ce = external global ptr, align 8

; Function Attrs: alwaysinline nounwind uwtable
define internal zeroext i1 @zend_object_is_lazy(ptr noundef %0) #3 {
  %2 = alloca ptr, align 8
  store ptr %0, ptr %2, align 8, !tbaa !62
  %3 = load ptr, ptr %2, align 8, !tbaa !62
  %4 = getelementptr inbounds nuw %struct._zend_object, ptr %3, i32 0, i32 2
  %5 = load i32, ptr %4, align 4, !tbaa !218
  %6 = and i32 %5, -1073741824
  %7 = icmp ne i32 %6, 0
  ret i1 %7
}

; Function Attrs: alwaysinline nounwind uwtable
define internal zeroext i1 @zend_lazy_object_must_init(ptr noundef %0) #3 {
  %2 = alloca ptr, align 8
  store ptr %0, ptr %2, align 8, !tbaa !62
  %3 = load ptr, ptr %2, align 8, !tbaa !62
  %4 = call zeroext i1 @zend_object_is_lazy(ptr noundef %3)
  ret i1 %4
}

; Function Attrs: alwaysinline nounwind uwtable
define internal i64 @zend_object_properties_size(ptr noundef %0) #3 {
  %2 = alloca ptr, align 8
  store ptr %0, ptr %2, align 8, !tbaa !67
  %3 = load ptr, ptr %2, align 8, !tbaa !67
  %4 = getelementptr inbounds nuw %struct._zend_class_entry, ptr %3, i32 0, i32 5
  %5 = load i32, ptr %4, align 8, !tbaa !216
  %6 = load ptr, ptr %2, align 8, !tbaa !67
  %7 = getelementptr inbounds nuw %struct._zend_class_entry, ptr %6, i32 0, i32 4
  %8 = load i32, ptr %7, align 4, !tbaa !217
  %9 = and i32 %8, 2048
  %10 = icmp ne i32 %9, 0
  %11 = select i1 %10, i32 0, i32 1
  %12 = sub nsw i32 %5, %11
  %13 = sext i32 %12 to i64
  %14 = mul i64 16, %13
  ret i64 %14
}

; Function Attrs: alwaysinline nounwind uwtable
define internal ptr @zend_std_get_properties_ex(ptr noundef %0) #3 {
  %2 = alloca ptr, align 8
  %3 = alloca ptr, align 8
  store ptr %0, ptr %3, align 8, !tbaa !62
  %4 = load ptr, ptr %3, align 8, !tbaa !62
  %5 = call zeroext i1 @zend_lazy_object_must_init(ptr noundef %4)
  %6 = xor i1 %5, true
  %7 = xor i1 %6, true
  %8 = zext i1 %7 to i32
  %9 = sext i32 %8 to i64
  %10 = call i64 @llvm.expect.i64(i64 %9, i64 0)
  %11 = icmp ne i64 %10, 0
  br i1 %11, label %12, label %15

12:                                               ; preds = %1
  %13 = load ptr, ptr %3, align 8, !tbaa !62
  %14 = call ptr @zend_lazy_object_get_properties(ptr noundef %13)
  store ptr %14, ptr %2, align 8
  br label %27

15:                                               ; preds = %1
  %16 = load ptr, ptr %3, align 8, !tbaa !62
  %17 = getelementptr inbounds nuw %struct._zend_object, ptr %16, i32 0, i32 5
  %18 = load ptr, ptr %17, align 8, !tbaa !210
  %19 = icmp ne ptr %18, null
  br i1 %19, label %23, label %20

20:                                               ; preds = %15
  %21 = load ptr, ptr %3, align 8, !tbaa !62
  %22 = call ptr @rebuild_object_properties_internal(ptr noundef %21)
  store ptr %22, ptr %2, align 8
  br label %27

23:                                               ; preds = %15
  %24 = load ptr, ptr %3, align 8, !tbaa !62
  %25 = getelementptr inbounds nuw %struct._zend_object, ptr %24, i32 0, i32 5
  %26 = load ptr, ptr %25, align 8, !tbaa !210
  store ptr %26, ptr %2, align 8
  br label %27

27:                                               ; preds = %23, %20, %12
  %28 = load ptr, ptr %2, align 8
  ret ptr %28
}

; Function Attrs: alwaysinline nounwind uwtable
define internal ptr @zend_object_alloc(i64 noundef %0, ptr noundef %1) #3 {
  %3 = alloca i64, align 8
  %4 = alloca ptr, align 8
  %5 = alloca ptr, align 8
  store i64 %0, ptr %3, align 8, !tbaa !68
  store ptr %1, ptr %4, align 8, !tbaa !67
  call void @llvm.lifetime.start.p0(i64 8, ptr %5) #14
  %6 = load i64, ptr %3, align 8, !tbaa !68
  %7 = load ptr, ptr %4, align 8, !tbaa !67
  %8 = call i64 @zend_object_properties_size(ptr noundef %7)
  %9 = add i64 %6, %8
  %10 = call noalias ptr @_emalloc(i64 noundef %9) #17
  store ptr %10, ptr %5, align 8, !tbaa !76
  %11 = load ptr, ptr %5, align 8, !tbaa !76
  %12 = load i64, ptr %3, align 8, !tbaa !68
  %13 = sub i64 %12, 56
  call void @llvm.memset.p0.i64(ptr align 1 %11, i8 0, i64 %13, i1 false)
  %14 = load ptr, ptr %5, align 8, !tbaa !76
  call void @llvm.lifetime.end.p0(i64 8, ptr %5) #14
  ret ptr %14
}

; Function Attrs: nounwind uwtable
define dso_local ptr @pdo_dbh_new(ptr noundef %0) #0 {
  %2 = alloca ptr, align 8
  %3 = alloca ptr, align 8
  store ptr %0, ptr %2, align 8, !tbaa !67
  call void @llvm.lifetime.start.p0(i64 8, ptr %3) #14
  %4 = load ptr, ptr %2, align 8, !tbaa !67
  %5 = call ptr @zend_object_alloc(i64 noundef 64, ptr noundef %4)
  store ptr %5, ptr %3, align 8, !tbaa !89
  %6 = load ptr, ptr %3, align 8, !tbaa !89
  %7 = getelementptr inbounds nuw %struct._pdo_dbh_object_t, ptr %6, i32 0, i32 1
  %8 = load ptr, ptr %2, align 8, !tbaa !67
  call void @zend_object_std_init(ptr noundef %7, ptr noundef %8)
  %9 = load ptr, ptr %3, align 8, !tbaa !89
  %10 = getelementptr inbounds nuw %struct._pdo_dbh_object_t, ptr %9, i32 0, i32 1
  %11 = load ptr, ptr %2, align 8, !tbaa !67
  call void @object_properties_init(ptr noundef %10, ptr noundef %11)
  %12 = load ptr, ptr %3, align 8, !tbaa !89
  %13 = getelementptr inbounds nuw %struct._pdo_dbh_object_t, ptr %12, i32 0, i32 1
  %14 = call ptr @zend_std_get_properties_ex(ptr noundef %13)
  %15 = call noalias ptr @_ecalloc(i64 noundef 1, i64 noundef 176) #16
  %16 = load ptr, ptr %3, align 8, !tbaa !89
  %17 = getelementptr inbounds nuw %struct._pdo_dbh_object_t, ptr %16, i32 0, i32 0
  store ptr %15, ptr %17, align 8, !tbaa !91
  %18 = load ptr, ptr @pdo_dbstmt_ce, align 8, !tbaa !67
  %19 = load ptr, ptr %3, align 8, !tbaa !89
  %20 = getelementptr inbounds nuw %struct._pdo_dbh_object_t, ptr %19, i32 0, i32 0
  %21 = load ptr, ptr %20, align 8, !tbaa !91
  %22 = getelementptr inbounds nuw %struct._pdo_dbh_t, ptr %21, i32 0, i32 16
  store ptr %18, ptr %22, align 8, !tbaa !88
  %23 = load ptr, ptr %3, align 8, !tbaa !89
  %24 = getelementptr inbounds nuw %struct._pdo_dbh_object_t, ptr %23, i32 0, i32 1
  call void @llvm.lifetime.end.p0(i64 8, ptr %3) #14
  ret ptr %24
}