; Function Attrs: nounwind uwtable
define dso_local noundef nonnull ptr @pdo_dbh_new(ptr noundef %0) #0 {
  %2 = getelementptr inbounds nuw i8, ptr %0, i64 32
  %3 = load i32, ptr %2, align 8, !tbaa !189
  %4 = getelementptr inbounds nuw i8, ptr %0, i64 28
  %5 = load i32, ptr %4, align 4, !tbaa !190
  %6 = lshr i32 %5, 11
  %.lobit.i = and i32 %6, 1
  %7 = xor i32 %.lobit.i, 1
  %8 = sub nsw i32 %3, %7
  %9 = sext i32 %8 to i64
  %10 = shl nsw i64 %9, 4
  %11 = add nsw i64 %10, 64
  %12 = tail call noalias ptr @_emalloc(i64 noundef %11) #16
  store i64 0, ptr %12, align 1
  %13 = getelementptr inbounds nuw i8, ptr %12, i64 8
  tail call void @zend_object_std_init(ptr noundef nonnull %13, ptr noundef %0) #13
  tail call void @object_properties_init(ptr noundef nonnull %13, ptr noundef %0) #13
  %14 = getelementptr inbounds nuw i8, ptr %12, i64 20
  %15 = load i32, ptr %14, align 4, !tbaa !191
  %16 = icmp ugt i32 %15, 1073741823
  br i1 %16, label %17, label %19, !prof !68

17:                                               ; preds = %1
  %18 = tail call ptr @zend_lazy_object_get_properties(ptr noundef nonnull %13) #13
  br label %zend_std_get_properties_ex.exit

19:                                               ; preds = %1
  %20 = getelementptr inbounds nuw i8, ptr %12, i64 40
  %21 = load ptr, ptr %20, align 8, !tbaa !192
  %.not.i = icmp eq ptr %21, null
  br i1 %.not.i, label %22, label %zend_std_get_properties_ex.exit

22:                                               ; preds = %19
  %23 = tail call ptr @rebuild_object_properties_internal(ptr noundef nonnull %13) #13
  br label %zend_std_get_properties_ex.exit

zend_std_get_properties_ex.exit:                  ; preds = %17, %19, %22
  %24 = tail call noalias dereferenceable_or_null(176) ptr @_ecalloc(i64 noundef 1, i64 noundef 176) #15
  store ptr %24, ptr %12, align 8, !tbaa !90
  %25 = load ptr, ptr @pdo_dbstmt_ce, align 8, !tbaa !58
  %26 = getelementptr inbounds nuw i8, ptr %24, i64 128
  store ptr %25, ptr %26, align 8, !tbaa !99
  ret ptr %13
}